; Function Attrs: mustprogress uwtable
define void @_ZN7rocksdb24TimestampRecoveryHandlerC2ERKSt13unordered_mapIjmSt4hashIjESt8equal_toIjESaISt4pairIKjmEEESC_bb(ptr noundef nonnull align 8 dereferenceable(42) initializes((0, 26)) %0, ptr noundef nonnull align 8 dereferenceable(56) %1, ptr noundef nonnull align 8 dereferenceable(56) %2, i1 noundef zeroext %3, i1 noundef zeroext %4) unnamed_addr #1 align 2 personality ptr @__gxx_personality_v0 {
  store ptr getelementptr inbounds nuw inrange(-16, 192) (i8, ptr @_ZTVN7rocksdb24TimestampRecoveryHandlerE, i64 16), ptr %0, align 8, !tbaa !4
  %6 = getelementptr inbounds nuw i8, ptr %0, i64 8
  store ptr %1, ptr %6, align 8, !tbaa !7
  %7 = getelementptr inbounds nuw i8, ptr %0, i64 16
  store ptr %2, ptr %7, align 8, !tbaa !7
  %8 = getelementptr inbounds nuw i8, ptr %0, i64 24
  %9 = xor i1 %3, true
  %10 = zext i1 %9 to i8
  store i8 %10, ptr %8, align 8, !tbaa !11
  %11 = getelementptr inbounds nuw i8, ptr %0, i64 25
  %12 = xor i1 %4, true
  %13 = zext i1 %12 to i8
  store i8 %13, ptr %11, align 1, !tbaa !22
  %14 = invoke noalias noundef nonnull dereferenceable(160) ptr @_Znwm(i64 noundef 160) #16
          to label %15 unwind label %19

15:                                               ; preds = %5
  invoke void @_ZN7rocksdb10WriteBatchC2Emmmm(ptr noundef nonnull align 8 dereferenceable(160) %14, i64 noundef 0, i64 noundef 0, i64 noundef 0, i64 noundef 0)
          to label %_ZN7rocksdb10WriteBatchC2Emm.exit unwind label %21

_ZN7rocksdb10WriteBatchC2Emm.exit:                ; preds = %15
  %16 = getelementptr inbounds nuw i8, ptr %0, i64 32
  store ptr %14, ptr %16, align 8, !tbaa !23
  %17 = getelementptr inbounds nuw i8, ptr %0, i64 40
  store i8 1, ptr %17, align 8, !tbaa !24
  %18 = getelementptr inbounds nuw i8, ptr %0, i64 41
  store i8 0, ptr %18, align 1, !tbaa !25
  ret void

19:                                               ; preds = %5
  %20 = landingpad { ptr, i32 }
          cleanup
  br label %23

21:                                               ; preds = %15
  %22 = landingpad { ptr, i32 }
          cleanup
  tail call void @_ZdlPvm(ptr noundef nonnull %14, i64 noundef 160) #17
  br label %23

23:                                               ; preds = %21, %19
  %.pn = phi { ptr, i32 } [ %22, %21 ], [ %20, %19 ]
  tail call void @_ZN7rocksdb10WriteBatch7HandlerD2Ev(ptr noundef nonnull align 8 dereferenceable(8) %0) #18
  resume { ptr, i32 } %.pn
}